target datalayout = "e-m:e-p270:32:32-p271:32:32-p272:64:64-i64:64-i128:128-f80:128-n8:16:32:64-S128"
target triple = "x86_64-pc-linux-gnu"

%struct.H5O_fill_t = type { %struct.H5O_shared_t, i32, ptr, i64, ptr, i32, i32, i8 }
%struct.H5O_shared_t = type { i32, ptr, i32, %union.anon }
%union.anon = type { %struct.H5O_mesg_loc_t }
%struct.H5O_mesg_loc_t = type { i32, i64 }

@H5P_init_g = external global i8, align 1
@H5_libterm_g = external global i8, align 1
@.str.1 = private unnamed_addr constant [101 x i8] c"generated/home/dtcxzyw/WorkSpace/Projects/compilers/llvm-opt-benchmark/bench/hdf5/hdf5/src/H5Pdcpl.c\00", align 1
@H5E_PLIST_g = external global i64, align 8
@H5E_CANTCOPY_g = external global i64, align 8
@__func__.H5P__dcrt_fill_value_set = private unnamed_addr constant [25 x i8] c"H5P__dcrt_fill_value_set\00", align 1
@.str.99 = private unnamed_addr constant [22 x i8] c"can't copy fill value\00", align 1

; Function Attrs: nounwind uwtable
define internal i32 @H5P__dcrt_fill_value_set(i64 noundef %0, ptr noundef %1, i64 noundef %2, ptr noundef %3) #0 {
  %5 = alloca i64, align 8
  %6 = alloca ptr, align 8
  %7 = alloca i64, align 8
  %8 = alloca ptr, align 8
  %9 = alloca ptr, align 8
  %10 = alloca %struct.H5O_fill_t, align 8
  %11 = alloca i32, align 4
  %12 = alloca i8, align 1
  store i64 %0, ptr %5, align 8, !tbaa !14
  store ptr %1, ptr %6, align 8, !tbaa !42
  store i64 %2, ptr %7, align 8, !tbaa !14
  store ptr %3, ptr %8, align 8, !tbaa !16
  call void @llvm.lifetime.start.p0(i64 8, ptr %9) #11
  %13 = load ptr, ptr %8, align 8, !tbaa !16
  store ptr %13, ptr %9, align 8, !tbaa !17
  call void @llvm.lifetime.start.p0(i64 88, ptr %10) #11
  call void @llvm.lifetime.start.p0(i64 4, ptr %11) #11
  store i32 0, ptr %11, align 4, !tbaa !8
  call void @llvm.lifetime.start.p0(i64 1, ptr %12) #11
  store i8 0, ptr %12, align 1, !tbaa !10
  %14 = load i8, ptr @H5P_init_g, align 1, !tbaa !10, !range !12, !noundef !13
  %15 = trunc i8 %14 to i1
  br i1 %15, label %20, label %16

16:                                               ; preds = %4
  %17 = load i8, ptr @H5_libterm_g, align 1, !tbaa !10, !range !12, !noundef !13
  %18 = trunc i8 %17 to i1
  %19 = xor i1 %18, true
  br label %20

20:                                               ; preds = %16, %4
  %21 = phi i1 [ true, %4 ], [ %19, %16 ]
  %22 = xor i1 %21, true
  %23 = xor i1 %22, true
  %24 = zext i1 %23 to i32
  %25 = sext i32 %24 to i64
  %26 = call i64 @llvm.expect.i64(i64 %25, i64 1)
  %27 = icmp ne i64 %26, 0
  br i1 %27, label %28, label %54

28:                                               ; preds = %20
  %29 = load ptr, ptr %9, align 8, !tbaa !17
  %30 = call ptr @H5O_msg_copy(i32 noundef 4, ptr noundef %29, ptr noundef %10)
  %31 = icmp eq ptr null, %30
  br i1 %31, label %32, label %51

32:                                               ; preds = %28
  br label %33

33:                                               ; preds = %32
  br label %34

34:                                               ; preds = %33
  br label %35

35:                                               ; preds = %34
  %36 = load i64, ptr @H5E_PLIST_g, align 8, !tbaa !14
  %37 = load i64, ptr @H5E_CANTCOPY_g, align 8, !tbaa !14
  %38 = call i32 (ptr, ptr, i32, i64, i64, ptr, ...) @H5E_printf_stack(ptr noundef @.str.1, ptr noundef @__func__.H5P__dcrt_fill_value_set, i32 noundef 981, i64 noundef %36, i64 noundef %37, ptr noundef @.str.99)
  br label %39

39:                                               ; preds = %35
  br label %40

40:                                               ; preds = %39
  store i8 1, ptr %12, align 1, !tbaa !10
  %41 = load i8, ptr %12, align 1, !tbaa !10, !range !12, !noundef !13
  %42 = trunc i8 %41 to i1
  %43 = zext i1 %42 to i8
  store i8 %43, ptr %12, align 1, !tbaa !10
  br label %44

44:                                               ; preds = %40
  br label %45

45:                                               ; preds = %44
  br label %46

46:                                               ; preds = %45
  store i32 -1, ptr %11, align 4, !tbaa !8
  br label %53

47:                                               ; No predecessors!
  br label %48

48:                                               ; preds = %47
  br label %49

49:                                               ; preds = %48
  br label %50

50:                                               ; preds = %49
  br label %51

51:                                               ; preds = %50, %28
  %52 = load ptr, ptr %9, align 8, !tbaa !17
  call void @llvm.memcpy.p0.p0.i64(ptr align 8 %52, ptr align 8 %10, i64 88, i1 false), !tbaa.struct !110
  br label %53

53:                                               ; preds = %51, %46
  br label %54

54:                                               ; preds = %53, %20
  %55 = load i32, ptr %11, align 4, !tbaa !8
  call void @llvm.lifetime.end.p0(i64 1, ptr %12) #11
  call void @llvm.lifetime.end.p0(i64 4, ptr %11) #11
  call void @llvm.lifetime.end.p0(i64 88, ptr %10) #11
  call void @llvm.lifetime.end.p0(i64 8, ptr %9) #11
  ret i32 %55
}